target datalayout = "e-m:e-p270:32:32-p271:32:32-p272:64:64-i64:64-i128:128-f80:128-n8:16:32:64-S128"
target triple = "x86_64-pc-linux-gnu"

%"class.cv::utils::trace::details::Region" = type <{ ptr, i32, [4 x i8] }>
%"class.cv::Size_" = type { i32, i32 }

; Function Attrs: mustprogress nounwind uwtable
define internal noundef zeroext i16 @_ZN2cvL13saturate_castItEET_h(i8 noundef zeroext %0) #2 {
  %2 = alloca i8, align 1
  store i8 %0, ptr %2, align 1
  %3 = load i8, ptr %2, align 1
  %4 = zext i8 %3 to i16
  ret i16 %4
}

; Function Attrs: mustprogress nounwind uwtable
define linkonce_odr hidden void @_ZN2cv5utils5trace7details6RegionD2Ev(ptr noundef nonnull align 8 dereferenceable(12) %0) unnamed_addr #2 comdat align 2 personality ptr @__gxx_personality_v0 {
  %2 = alloca ptr, align 8
  store ptr %0, ptr %2, align 8
  %3 = load ptr, ptr %2, align 8
  %4 = getelementptr inbounds %"class.cv::utils::trace::details::Region", ptr %3, i32 0, i32 1
  %5 = load i32, ptr %4, align 8
  %6 = icmp ne i32 %5, 0
  br i1 %6, label %7, label %9

7:                                                ; preds = %1
  invoke void @_ZN2cv5utils5trace7details6Region7destroyEv(ptr noundef nonnull align 8 dereferenceable(12) %3)
          to label %8 unwind label %10

8:                                                ; preds = %7
  br label %9

9:                                                ; preds = %8, %1
  ret void

10:                                               ; preds = %7
  %11 = landingpad { ptr, i32 }
          catch ptr null
  %12 = extractvalue { ptr, i32 } %11, 0
  call void @__clang_call_terminate(ptr %12) #12
  unreachable
}

; Function Attrs: mustprogress uwtable
define internal void @_ZN2cv12cpu_baselineL4cvt_IhtNS_12hal_baseline5v_regItLi8EEEEEvPKT_mPT0_mNS_5Size_IiEE(ptr noundef %0, i64 noundef %1, ptr noundef %2, i64 noundef %3, i64 %4) #0 {
  %6 = alloca %"class.cv::Size_", align 4
  %7 = alloca ptr, align 8
  %8 = alloca i64, align 8
  %9 = alloca ptr, align 8
  %10 = alloca i64, align 8
  %11 = alloca i32, align 4
  %12 = alloca i32, align 4
  store i64 %4, ptr %6, align 4
  store ptr %0, ptr %7, align 8
  store i64 %1, ptr %8, align 8
  store ptr %2, ptr %9, align 8
  store i64 %3, ptr %10, align 8
  %13 = load i64, ptr %8, align 8
  %14 = udiv i64 %13, 1
  store i64 %14, ptr %8, align 8
  %15 = load i64, ptr %10, align 8
  %16 = udiv i64 %15, 2
  store i64 %16, ptr %10, align 8
  store i32 0, ptr %11, align 4
  br label %17

17:                                               ; preds = %43, %5
  %18 = load i32, ptr %11, align 4
  %19 = getelementptr inbounds %"class.cv::Size_", ptr %6, i32 0, i32 1
  %20 = load i32, ptr %19, align 4
  %21 = icmp slt i32 %18, %20
  br i1 %21, label %22, label %52

22:                                               ; preds = %17
  store i32 0, ptr %12, align 4
  br label %23

23:                                               ; preds = %39, %22
  %24 = load i32, ptr %12, align 4
  %25 = getelementptr inbounds %"class.cv::Size_", ptr %6, i32 0, i32 0
  %26 = load i32, ptr %25, align 4
  %27 = icmp slt i32 %24, %26
  br i1 %27, label %28, label %42

28:                                               ; preds = %23
  %29 = load ptr, ptr %7, align 8
  %30 = load i32, ptr %12, align 4
  %31 = sext i32 %30 to i64
  %32 = getelementptr inbounds i8, ptr %29, i64 %31
  %33 = load i8, ptr %32, align 1
  %34 = call noundef zeroext i16 @_ZN2cvL13saturate_castItEET_h(i8 noundef zeroext %33)
  %35 = load ptr, ptr %9, align 8
  %36 = load i32, ptr %12, align 4
  %37 = sext i32 %36 to i64
  %38 = getelementptr inbounds i16, ptr %35, i64 %37
  store i16 %34, ptr %38, align 2
  br label %39

39:                                               ; preds = %28
  %40 = load i32, ptr %12, align 4
  %41 = add nsw i32 %40, 1
  store i32 %41, ptr %12, align 4
  br label %23, !llvm.loop !40

42:                                               ; preds = %23
  br label %43

43:                                               ; preds = %42
  %44 = load i32, ptr %11, align 4
  %45 = add nsw i32 %44, 1
  store i32 %45, ptr %11, align 4
  %46 = load i64, ptr %8, align 8
  %47 = load ptr, ptr %7, align 8
  %48 = getelementptr inbounds i8, ptr %47, i64 %46
  store ptr %48, ptr %7, align 8
  %49 = load i64, ptr %10, align 8
  %50 = load ptr, ptr %9, align 8
  %51 = getelementptr inbounds i16, ptr %50, i64 %49
  store ptr %51, ptr %9, align 8
  br label %17, !llvm.loop !41

52:                                               ; preds = %17
  ret void
}

; Function Attrs: mustprogress uwtable
define internal void @_ZN2cv12cpu_baselineL8cvt8u16uEPKhmS2_mPhmNS_5Size_IiEEPv(ptr noundef %0, i64 noundef %1, ptr noundef %2, i64 noundef %3, ptr noundef %4, i64 noundef %5, i64 %6, ptr noundef %7) #0 personality ptr @__gxx_personality_v0 {
  %9 = alloca %"class.cv::Size_", align 4
  %10 = alloca ptr, align 8
  %11 = alloca i64, align 8
  %12 = alloca ptr, align 8
  %13 = alloca i64, align 8
  %14 = alloca ptr, align 8
  %15 = alloca i64, align 8
  %16 = alloca ptr, align 8
  %17 = alloca %"class.cv::utils::trace::details::Region", align 8
  %18 = alloca ptr, align 8
  %19 = alloca ptr, align 8
  %20 = alloca %"class.cv::Size_", align 4
  %21 = alloca ptr, align 8
  %22 = alloca i32, align 4
  store i64 %6, ptr %9, align 4
  store ptr %0, ptr %10, align 8
  store i64 %1, ptr %11, align 8
  store ptr %2, ptr %12, align 8
  store i64 %3, ptr %13, align 8
  store ptr %4, ptr %14, align 8
  store i64 %5, ptr %15, align 8
  store ptr %7, ptr %16, align 8
  call void @_ZN2cv5utils5trace7details6RegionC1ERKNS3_21LocationStaticStorageE(ptr noundef nonnull align 8 dereferenceable(12) %17, ptr noundef nonnull align 8 dereferenceable(32) @_ZZN2cv12cpu_baselineL8cvt8u16uEPKhmS2_mPhmNS_5Size_IiEEPvE25__cv_trace_location_fn186)
  %23 = load ptr, ptr %10, align 8
  store ptr %23, ptr %18, align 8
  %24 = load ptr, ptr %14, align 8
  store ptr %24, ptr %19, align 8
  %25 = load ptr, ptr %18, align 8
  %26 = load i64, ptr %11, align 8
  %27 = load ptr, ptr %19, align 8
  %28 = load i64, ptr %15, align 8
  call void @llvm.memcpy.p0.p0.i64(ptr align 4 %20, ptr align 4 %9, i64 8, i1 false)
  %29 = load i64, ptr %20, align 4
  invoke void @_ZN2cv12cpu_baselineL4cvt_IhtNS_12hal_baseline5v_regItLi8EEEEEvPKT_mPT0_mNS_5Size_IiEE(ptr noundef %25, i64 noundef %26, ptr noundef %27, i64 noundef %28, i64 %29)
          to label %30 unwind label %31

30:                                               ; preds = %8
  call void @_ZN2cv5utils5trace7details6RegionD2Ev(ptr noundef nonnull align 8 dereferenceable(12) %17) #11
  ret void

31:                                               ; preds = %8
  %32 = landingpad { ptr, i32 }
          cleanup
  %33 = extractvalue { ptr, i32 } %32, 0
  store ptr %33, ptr %21, align 8
  %34 = extractvalue { ptr, i32 } %32, 1
  store i32 %34, ptr %22, align 4
  call void @_ZN2cv5utils5trace7details6RegionD2Ev(ptr noundef nonnull align 8 dereferenceable(12) %17) #11
  br label %35

35:                                               ; preds = %31
  %36 = load ptr, ptr %21, align 8
  %37 = load i32, ptr %22, align 4
  %38 = insertvalue { ptr, i32 } poison, ptr %36, 0
  %39 = insertvalue { ptr, i32 } %38, i32 %37, 1
  resume { ptr, i32 } %39
}